target datalayout = "e-m:e-p270:32:32-p271:32:32-p272:64:64-i64:64-i128:128-f80:128-n8:16:32:64-S128"
target triple = "x86_64-pc-linux-gnu"

%struct.SDL_Properties = type { ptr, ptr }
%struct.SDL_Property = type { i32, %union.anon, ptr, ptr, ptr }
%union.anon = type { ptr }

@SDL_properties = internal global ptr null, align 8

; Function Attrs: nounwind uwtable
define hidden float @SDL_GetFloatProperty_REAL(i32 noundef %0, ptr noundef %1, float noundef %2) #0 {
  %4 = alloca float, align 4
  %5 = alloca i32, align 4
  %6 = alloca ptr, align 8
  %7 = alloca float, align 4
  %8 = alloca ptr, align 8
  %9 = alloca float, align 4
  %10 = alloca i32, align 4
  %11 = alloca ptr, align 8
  store i32 %0, ptr %5, align 4
  store ptr %1, ptr %6, align 8
  store float %2, ptr %7, align 4
  call void @llvm.lifetime.start.p0(i64 8, ptr %8) #6
  store ptr null, ptr %8, align 8
  call void @llvm.lifetime.start.p0(i64 4, ptr %9) #6
  %12 = load float, ptr %7, align 4
  store float %12, ptr %9, align 4
  %13 = load i32, ptr %5, align 4
  %14 = icmp ne i32 %13, 0
  br i1 %14, label %17, label %15

15:                                               ; preds = %3
  %16 = load float, ptr %9, align 4
  store float %16, ptr %4, align 4
  store i32 1, ptr %10, align 4
  br label %77

17:                                               ; preds = %3
  %18 = load ptr, ptr %6, align 8
  %19 = icmp ne ptr %18, null
  br i1 %19, label %20, label %24

20:                                               ; preds = %17
  %21 = load ptr, ptr %6, align 8
  %22 = load i8, ptr %21, align 1
  %23 = icmp ne i8 %22, 0
  br i1 %23, label %26, label %24

24:                                               ; preds = %20, %17
  %25 = load float, ptr %9, align 4
  store float %25, ptr %4, align 4
  store i32 1, ptr %10, align 4
  br label %77

26:                                               ; preds = %20
  %27 = load ptr, ptr @SDL_properties, align 8
  %28 = load i32, ptr %5, align 4
  %29 = zext i32 %28 to i64
  %30 = inttoptr i64 %29 to ptr
  %31 = call zeroext i1 @SDL_FindInHashTable(ptr noundef %27, ptr noundef %30, ptr noundef %8)
  %32 = load ptr, ptr %8, align 8
  %33 = icmp ne ptr %32, null
  br i1 %33, label %36, label %34

34:                                               ; preds = %26
  %35 = load float, ptr %9, align 4
  store float %35, ptr %4, align 4
  store i32 1, ptr %10, align 4
  br label %77

36:                                               ; preds = %26
  %37 = load ptr, ptr %8, align 8
  %38 = getelementptr inbounds nuw %struct.SDL_Properties, ptr %37, i32 0, i32 1
  %39 = load ptr, ptr %38, align 8
  call void @SDL_LockMutex_REAL(ptr noundef %39)
  call void @llvm.lifetime.start.p0(i64 8, ptr %11) #6
  store ptr null, ptr %11, align 8
  %40 = load ptr, ptr %8, align 8
  %41 = getelementptr inbounds nuw %struct.SDL_Properties, ptr %40, i32 0, i32 0
  %42 = load ptr, ptr %41, align 8
  %43 = load ptr, ptr %6, align 8
  %44 = call zeroext i1 @SDL_FindInHashTable(ptr noundef %42, ptr noundef %43, ptr noundef %11)
  br i1 %44, label %45, label %72

45:                                               ; preds = %36
  %46 = load ptr, ptr %11, align 8
  %47 = getelementptr inbounds nuw %struct.SDL_Property, ptr %46, i32 0, i32 0
  %48 = load i32, ptr %47, align 8
  switch i32 %48, label %70 [
    i32 2, label %49
    i32 3, label %55
    i32 4, label %60
    i32 5, label %64
  ]

49:                                               ; preds = %45
  %50 = load ptr, ptr %11, align 8
  %51 = getelementptr inbounds nuw %struct.SDL_Property, ptr %50, i32 0, i32 1
  %52 = load ptr, ptr %51, align 8
  %53 = call double @SDL_atof_REAL(ptr noundef %52)
  %54 = fptrunc double %53 to float
  store float %54, ptr %9, align 4
  br label %71

55:                                               ; preds = %45
  %56 = load ptr, ptr %11, align 8
  %57 = getelementptr inbounds nuw %struct.SDL_Property, ptr %56, i32 0, i32 1
  %58 = load i64, ptr %57, align 8
  %59 = sitofp i64 %58 to float
  store float %59, ptr %9, align 4
  br label %71

60:                                               ; preds = %45
  %61 = load ptr, ptr %11, align 8
  %62 = getelementptr inbounds nuw %struct.SDL_Property, ptr %61, i32 0, i32 1
  %63 = load float, ptr %62, align 8
  store float %63, ptr %9, align 4
  br label %71

64:                                               ; preds = %45
  %65 = load ptr, ptr %11, align 8
  %66 = getelementptr inbounds nuw %struct.SDL_Property, ptr %65, i32 0, i32 1
  %67 = load i8, ptr %66, align 8, !range !3, !noundef !4
  %68 = trunc i8 %67 to i1
  %69 = uitofp i1 %68 to float
  store float %69, ptr %9, align 4
  br label %71

70:                                               ; preds = %45
  br label %71

71:                                               ; preds = %70, %64, %60, %55, %49
  br label %72

72:                                               ; preds = %71, %36
  call void @llvm.lifetime.end.p0(i64 8, ptr %11) #6
  %73 = load ptr, ptr %8, align 8
  %74 = getelementptr inbounds nuw %struct.SDL_Properties, ptr %73, i32 0, i32 1
  %75 = load ptr, ptr %74, align 8
  call void @SDL_UnlockMutex_REAL(ptr noundef %75)
  %76 = load float, ptr %9, align 4
  store float %76, ptr %4, align 4
  store i32 1, ptr %10, align 4
  br label %77

77:                                               ; preds = %72, %34, %24, %15
  call void @llvm.lifetime.end.p0(i64 4, ptr %9) #6
  call void @llvm.lifetime.end.p0(i64 8, ptr %8) #6
  %78 = load float, ptr %4, align 4
  ret float %78
}